target datalayout = "e-m:e-p270:32:32-p271:32:32-p272:64:64-i64:64-i128:128-f80:128-n8:16:32:64-S128"
target triple = "x86_64-pc-linux-gnu"

@hf_ndps_nameorid = internal global i32 0, align 4
@hf_ndps_local_object_name = internal global i32 0, align 4

; Function Attrs: nounwind uwtable
define internal i32 @align_4(ptr noundef %0, i32 noundef %1) #0 {
  %3 = alloca i32, align 4
  %4 = alloca ptr, align 8
  %5 = alloca i32, align 4
  store ptr %0, ptr %4, align 8
  store i32 %1, ptr %5, align 4
  %6 = load ptr, ptr %4, align 8
  %7 = load i32, ptr %5, align 4
  %8 = call i32 @tvb_captured_length_remaining(ptr noundef %6, i32 noundef %7)
  %9 = icmp sgt i32 %8, 4
  br i1 %9, label %10, label %13

10:                                               ; preds = %2
  %11 = load i32, ptr %5, align 4
  %12 = srem i32 %11, 4
  store i32 %12, ptr %3, align 4
  br label %14

13:                                               ; preds = %2
  store i32 0, ptr %3, align 4
  br label %14

14:                                               ; preds = %13, %10
  %15 = load i32, ptr %3, align 4
  ret i32 %15
}

; Function Attrs: nounwind uwtable
define internal i32 @name_or_id(ptr noundef %0, ptr noundef %1, i32 noundef %2) #0 {
  %4 = alloca ptr, align 8
  %5 = alloca ptr, align 8
  %6 = alloca i32, align 4
  %7 = alloca i32, align 4
  store ptr %0, ptr %4, align 8
  store ptr %1, ptr %5, align 8
  store i32 %2, ptr %6, align 4
  %8 = load ptr, ptr %4, align 8
  %9 = load i32, ptr %6, align 4
  %10 = call i32 @tvb_get_ntohl(ptr noundef %8, i32 noundef %9)
  store i32 %10, ptr %7, align 4
  %11 = load ptr, ptr %5, align 8
  %12 = load i32, ptr @hf_ndps_nameorid, align 4
  %13 = load ptr, ptr %4, align 8
  %14 = load i32, ptr %6, align 4
  %15 = load i32, ptr %7, align 4
  %16 = call ptr @proto_tree_add_uint(ptr noundef %11, i32 noundef %12, ptr noundef %13, i32 noundef %14, i32 noundef 4, i32 noundef %15)
  %17 = load i32, ptr %6, align 4
  %18 = add i32 %17, 4
  store i32 %18, ptr %6, align 4
  %19 = load i32, ptr %7, align 4
  switch i32 %19, label %31 [
    i32 1, label %20
    i32 2, label %25
  ]

20:                                               ; preds = %3
  %21 = load ptr, ptr %4, align 8
  %22 = load ptr, ptr %5, align 8
  %23 = load i32, ptr %6, align 4
  %24 = call i32 @objectidentifier(ptr noundef %21, ptr noundef %22, i32 noundef %23)
  store i32 %24, ptr %6, align 4
  br label %31

25:                                               ; preds = %3
  %26 = load ptr, ptr %4, align 8
  %27 = load i32, ptr @hf_ndps_local_object_name, align 4
  %28 = load ptr, ptr %5, align 8
  %29 = load i32, ptr %6, align 4
  %30 = call i32 @ndps_string(ptr noundef %26, i32 noundef %27, ptr noundef %28, i32 noundef %29, ptr noundef null)
  store i32 %30, ptr %6, align 4
  br label %31

31:                                               ; preds = %25, %20, %3
  %32 = load ptr, ptr %4, align 8
  %33 = load i32, ptr %6, align 4
  %34 = call i32 @align_4(ptr noundef %32, i32 noundef %33)
  %35 = load i32, ptr %6, align 4
  %36 = add i32 %35, %34
  store i32 %36, ptr %6, align 4
  %37 = load i32, ptr %6, align 4
  ret i32 %37
}