; Function Attrs: nounwind uwtable
define internal fastcc i32 @name_or_id(ptr noundef %0, ptr noundef %1, i32 noundef %2) unnamed_addr #0 {
  %4 = tail call i32 @tvb_get_ntohl(ptr noundef %0, i32 noundef %2) #6
  %5 = load i32, ptr @hf_ndps_nameorid, align 4
  %6 = tail call ptr @proto_tree_add_uint(ptr noundef %1, i32 noundef %5, ptr noundef %0, i32 noundef %2, i32 noundef 4, i32 noundef %4) #6
  %7 = add i32 %2, 4
  switch i32 %4, label %13 [
    i32 1, label %8
    i32 2, label %10
  ]

8:                                                ; preds = %3
  %9 = tail call fastcc i32 @objectidentifier(ptr noundef %0, ptr noundef %1, i32 noundef %7)
  br label %13

10:                                               ; preds = %3
  %11 = load i32, ptr @hf_ndps_local_object_name, align 4
  %12 = tail call fastcc i32 @ndps_string(ptr noundef %0, i32 noundef %11, ptr noundef %1, i32 noundef %7, ptr noundef null)
  br label %13

13:                                               ; preds = %10, %8, %3
  %.0 = phi i32 [ %7, %3 ], [ %12, %10 ], [ %9, %8 ]
  %14 = tail call i32 @tvb_captured_length_remaining(ptr noundef %0, i32 noundef %.0) #6
  %15 = icmp sgt i32 %14, 4
  %16 = srem i32 %.0, 4
  %.0.i = select i1 %15, i32 %16, i32 0
  %17 = add i32 %.0.i, %.0
  ret i32 %17
}